; ModuleID = '1616.c'
source_filename = "1616.c"
target datalayout = "e-m:e-p270:32:32-p271:32:32-p272:64:64-i64:64-f80:128-n8:16:32:64-S128"
target triple = "x86_64-pc-linux-gnu"

@max = dso_local global [29 x i32] zeroinitializer, align 16
@count = dso_local global [29 x i32] zeroinitializer, align 16
@N = common dso_local global i32 0, align 4
@a = common dso_local global [29 x i32] zeroinitializer, align 16
@.str = private unnamed_addr constant [3 x i8] c"%d\00", align 1

; Function Attrs: noinline nounwind uwtable
define dso_local i32 @selectt(i32 %0) #0 {
  %2 = alloca i32, align 4
  %3 = alloca i32, align 4
  store i32 %0, i32* %2, align 4
  %4 = load i32, i32* %2, align 4
  %5 = sext i32 %4 to i64
  %6 = getelementptr inbounds [29 x i32], [29 x i32]* @count, i64 0, i64 %5
  %7 = load i32, i32* %6, align 4
  %8 = icmp eq i32 %7, 0
  br i1 %8, label %9, label %60

9:                                                ; preds = %1
  %10 = load i32, i32* %2, align 4
  %11 = add nsw i32 %10, 1
  store i32 %11, i32* %3, align 4
  br label %12

12:                                               ; preds = %43, %9
  %13 = load i32, i32* %3, align 4
  %14 = load i32, i32* @N, align 4
  %15 = icmp sle i32 %13, %14
  br i1 %15, label %16, label %46

16:                                               ; preds = %12
  %17 = load i32, i32* %2, align 4
  %18 = sext i32 %17 to i64
  %19 = getelementptr inbounds [29 x i32], [29 x i32]* @a, i64 0, i64 %18
  %20 = load i32, i32* %19, align 4
  %21 = load i32, i32* %3, align 4
  %22 = sext i32 %21 to i64
  %23 = getelementptr inbounds [29 x i32], [29 x i32]* @a, i64 0, i64 %22
  %24 = load i32, i32* %23, align 4
  %25 = icmp sge i32 %20, %24
  br i1 %25, label %26, label %42

26:                                               ; preds = %16
  %27 = load i32, i32* %2, align 4
  %28 = sext i32 %27 to i64
  %29 = getelementptr inbounds [29 x i32], [29 x i32]* @max, i64 0, i64 %28
  %30 = load i32, i32* %29, align 4
  %31 = load i32, i32* %3, align 4
  %32 = call i32 @selectt(i32 %31)
  %33 = icmp sle i32 %30, %32
  br i1 %33, label %34, label %41

34:                                               ; preds = %26
  %35 = load i32, i32* %3, align 4
  %36 = call i32 @selectt(i32 %35)
  %37 = add nsw i32 %36, 1
  %38 = load i32, i32* %2, align 4
  %39 = sext i32 %38 to i64
  %40 = getelementptr inbounds [29 x i32], [29 x i32]* @max, i64 0, i64 %39
  store i32 %37, i32* %40, align 4
  br label %41

41:                                               ; preds = %34, %26
  br label %42

42:                                               ; preds = %41, %16
  br label %43

43:                                               ; preds = %42
  %44 = load i32, i32* %3, align 4
  %45 = add nsw i32 %44, 1
  store i32 %45, i32* %3, align 4
  br label %12

46:                                               ; preds = %12
  %47 = load i32, i32* %2, align 4
  %48 = sext i32 %47 to i64
  %49 = getelementptr inbounds [29 x i32], [29 x i32]* @max, i64 0, i64 %48
  %50 = load i32, i32* %49, align 4
  %51 = icmp eq i32 %50, 0
  br i1 %51, label %52, label %56

52:                                               ; preds = %46
  %53 = load i32, i32* %2, align 4
  %54 = sext i32 %53 to i64
  %55 = getelementptr inbounds [29 x i32], [29 x i32]* @max, i64 0, i64 %54
  store i32 1, i32* %55, align 4
  br label %56

56:                                               ; preds = %52, %46
  %57 = load i32, i32* %2, align 4
  %58 = sext i32 %57 to i64
  %59 = getelementptr inbounds [29 x i32], [29 x i32]* @count, i64 0, i64 %58
  store i32 1, i32* %59, align 4
  br label %60

60:                                               ; preds = %56, %1
  %61 = load i32, i32* %2, align 4
  %62 = sext i32 %61 to i64
  %63 = getelementptr inbounds [29 x i32], [29 x i32]* @max, i64 0, i64 %62
  %64 = load i32, i32* %63, align 4
  ret i32 %64
}

; Function Attrs: noinline nounwind uwtable
define dso_local i32 @main() #0 {
  %1 = alloca i32, align 4
  %2 = alloca i32, align 4
  %3 = alloca i32, align 4
  %4 = alloca i32, align 4
  store i32 0, i32* %1, align 4
  %5 = call i32 (i8*, ...) @__isoc99_scanf(i8* getelementptr inbounds ([3 x i8], [3 x i8]* @.str, i64 0, i64 0), i32* @N)
  store i32 1, i32* %3, align 4
  br label %6

6:                                                ; preds = %15, %0
  %7 = load i32, i32* %3, align 4
  %8 = load i32, i32* @N, align 4
  %9 = icmp sle i32 %7, %8
  br i1 %9, label %10, label %18

10:                                               ; preds = %6
  %11 = load i32, i32* %3, align 4
  %12 = sext i32 %11 to i64
  %13 = getelementptr inbounds [29 x i32], [29 x i32]* @a, i64 0, i64 %12
  %14 = call i32 (i8*, ...) @__isoc99_scanf(i8* getelementptr inbounds ([3 x i8], [3 x i8]* @.str, i64 0, i64 0), i32* %13)
  br label %15

15:                                               ; preds = %10
  %16 = load i32, i32* %3, align 4
  %17 = add nsw i32 %16, 1
  store i32 %17, i32* %3, align 4
  br label %6

18:                                               ; preds = %6
  %19 = call i32 @selectt(i32 1)
  store i32 %19, i32* %2, align 4
  store i32 2, i32* %4, align 4
  br label %20

20:                                               ; preds = %33, %18
  %21 = load i32, i32* %4, align 4
  %22 = load i32, i32* @N, align 4
  %23 = icmp sle i32 %21, %22
  br i1 %23, label %24, label %36

24:                                               ; preds = %20
  %25 = load i32, i32* %2, align 4
  %26 = load i32, i32* %4, align 4
  %27 = call i32 @selectt(i32 %26)
  %28 = icmp slt i32 %25, %27
  br i1 %28, label %29, label %32

29:                                               ; preds = %24
  %30 = load i32, i32* %4, align 4
  %31 = call i32 @selectt(i32 %30)
  store i32 %31, i32* %2, align 4
  br label %32

32:                                               ; preds = %29, %24
  br label %33

33:                                               ; preds = %32
  %34 = load i32, i32* %4, align 4
  %35 = add nsw i32 %34, 1
  store i32 %35, i32* %4, align 4
  br label %20

36:                                               ; preds = %20
  %37 = load i32, i32* %2, align 4
  %38 = call i32 (i8*, ...) @printf(i8* getelementptr inbounds ([3 x i8], [3 x i8]* @.str, i64 0, i64 0), i32 %37)
  %39 = load i32, i32* %1, align 4
  ret i32 %39
}

declare dso_local i32 @__isoc99_scanf(i8*, ...) #1

declare dso_local i32 @printf(i8*, ...) #1


!llvm.module.flags = !{!0}
!llvm.ident = !{!1}

!0 = !{i32 1, !"wchar_size", i32 4}
!1 = !{!"clang version 10.0.0-4ubuntu1 "}
